target datalayout = "e-m:e-p270:32:32-p271:32:32-p272:64:64-i64:64-i128:128-f80:128-n8:16:32:64-S128"
target triple = "x86_64-pc-linux-gnu"

%struct.struct_it8 = type { i32, i32, i32, [255 x %struct._Table], ptr, %struct._SubAllocator, i32, i32, i32, double, ptr, ptr, ptr, ptr, ptr, i32, [20 x ptr], i32, ptr, [128 x i8], ptr }
%struct._Table = type { [1024 x i8], i32, i32, i32, ptr, ptr, ptr }
%struct._SubAllocator = type { ptr, i32, i32 }
%struct._OwnedMem = type { ptr, ptr }
%struct._KeyVal = type { ptr, ptr, ptr, ptr, ptr, i32 }

@.str.81 = private unnamed_addr constant [25 x i8] c"Table %d out of sequence\00", align 1

; Function Attrs: nounwind uwtable
define internal ptr @AllocBigBlock(ptr noundef %0, i32 noundef %1) #0 {
  %3 = alloca ptr, align 8
  %4 = alloca ptr, align 8
  %5 = alloca i32, align 4
  %6 = alloca ptr, align 8
  %7 = alloca ptr, align 8
  store ptr %0, ptr %4, align 8
  store i32 %1, ptr %5, align 4
  %8 = load ptr, ptr %4, align 8
  %9 = getelementptr inbounds %struct.struct_it8, ptr %8, i32 0, i32 20
  %10 = load ptr, ptr %9, align 8
  %11 = load i32, ptr %5, align 4
  %12 = call ptr @_cmsMallocZero(ptr noundef %10, i32 noundef %11)
  store ptr %12, ptr %7, align 8
  %13 = load ptr, ptr %7, align 8
  %14 = icmp ne ptr %13, null
  br i1 %14, label %15, label %39

15:                                               ; preds = %2
  %16 = load ptr, ptr %4, align 8
  %17 = getelementptr inbounds %struct.struct_it8, ptr %16, i32 0, i32 20
  %18 = load ptr, ptr %17, align 8
  %19 = call ptr @_cmsMallocZero(ptr noundef %18, i32 noundef 16)
  store ptr %19, ptr %6, align 8
  %20 = load ptr, ptr %6, align 8
  %21 = icmp eq ptr %20, null
  br i1 %21, label %22, label %27

22:                                               ; preds = %15
  %23 = load ptr, ptr %4, align 8
  %24 = getelementptr inbounds %struct.struct_it8, ptr %23, i32 0, i32 20
  %25 = load ptr, ptr %24, align 8
  %26 = load ptr, ptr %7, align 8
  call void @_cmsFree(ptr noundef %25, ptr noundef %26)
  store ptr null, ptr %3, align 8
  br label %41

27:                                               ; preds = %15
  %28 = load ptr, ptr %7, align 8
  %29 = load ptr, ptr %6, align 8
  %30 = getelementptr inbounds %struct._OwnedMem, ptr %29, i32 0, i32 1
  store ptr %28, ptr %30, align 8
  %31 = load ptr, ptr %4, align 8
  %32 = getelementptr inbounds %struct.struct_it8, ptr %31, i32 0, i32 4
  %33 = load ptr, ptr %32, align 8
  %34 = load ptr, ptr %6, align 8
  %35 = getelementptr inbounds %struct._OwnedMem, ptr %34, i32 0, i32 0
  store ptr %33, ptr %35, align 8
  %36 = load ptr, ptr %6, align 8
  %37 = load ptr, ptr %4, align 8
  %38 = getelementptr inbounds %struct.struct_it8, ptr %37, i32 0, i32 4
  store ptr %36, ptr %38, align 8
  br label %39

39:                                               ; preds = %27, %2
  %40 = load ptr, ptr %7, align 8
  store ptr %40, ptr %3, align 8
  br label %41

41:                                               ; preds = %39, %22
  %42 = load ptr, ptr %3, align 8
  ret ptr %42
}

; Function Attrs: nounwind uwtable
define internal ptr @AllocChunk(ptr noundef %0, i32 noundef %1) #0 {
  %3 = alloca ptr, align 8
  %4 = alloca ptr, align 8
  %5 = alloca i32, align 4
  %6 = alloca i32, align 4
  %7 = alloca ptr, align 8
  store ptr %0, ptr %4, align 8
  store i32 %1, ptr %5, align 4
  %8 = load ptr, ptr %4, align 8
  %9 = getelementptr inbounds %struct.struct_it8, ptr %8, i32 0, i32 5
  %10 = getelementptr inbounds %struct._SubAllocator, ptr %9, i32 0, i32 1
  %11 = load i32, ptr %10, align 8
  %12 = load ptr, ptr %4, align 8
  %13 = getelementptr inbounds %struct.struct_it8, ptr %12, i32 0, i32 5
  %14 = getelementptr inbounds %struct._SubAllocator, ptr %13, i32 0, i32 2
  %15 = load i32, ptr %14, align 4
  %16 = sub i32 %11, %15
  store i32 %16, ptr %6, align 4
  %17 = load i32, ptr %5, align 4
  %18 = zext i32 %17 to i64
  %19 = add i64 %18, 7
  %20 = and i64 %19, -8
  %21 = trunc i64 %20 to i32
  store i32 %21, ptr %5, align 4
  %22 = load i32, ptr %5, align 4
  %23 = load i32, ptr %6, align 4
  %24 = icmp ugt i32 %22, %23
  br i1 %24, label %25, label %66

25:                                               ; preds = %2
  %26 = load ptr, ptr %4, align 8
  %27 = getelementptr inbounds %struct.struct_it8, ptr %26, i32 0, i32 5
  %28 = getelementptr inbounds %struct._SubAllocator, ptr %27, i32 0, i32 1
  %29 = load i32, ptr %28, align 8
  %30 = icmp eq i32 %29, 0
  br i1 %30, label %31, label %35

31:                                               ; preds = %25
  %32 = load ptr, ptr %4, align 8
  %33 = getelementptr inbounds %struct.struct_it8, ptr %32, i32 0, i32 5
  %34 = getelementptr inbounds %struct._SubAllocator, ptr %33, i32 0, i32 1
  store i32 20480, ptr %34, align 8
  br label %41

35:                                               ; preds = %25
  %36 = load ptr, ptr %4, align 8
  %37 = getelementptr inbounds %struct.struct_it8, ptr %36, i32 0, i32 5
  %38 = getelementptr inbounds %struct._SubAllocator, ptr %37, i32 0, i32 1
  %39 = load i32, ptr %38, align 8
  %40 = mul i32 %39, 2
  store i32 %40, ptr %38, align 8
  br label %41

41:                                               ; preds = %35, %31
  %42 = load ptr, ptr %4, align 8
  %43 = getelementptr inbounds %struct.struct_it8, ptr %42, i32 0, i32 5
  %44 = getelementptr inbounds %struct._SubAllocator, ptr %43, i32 0, i32 1
  %45 = load i32, ptr %44, align 8
  %46 = load i32, ptr %5, align 4
  %47 = icmp ult i32 %45, %46
  br i1 %47, label %48, label %53

48:                                               ; preds = %41
  %49 = load i32, ptr %5, align 4
  %50 = load ptr, ptr %4, align 8
  %51 = getelementptr inbounds %struct.struct_it8, ptr %50, i32 0, i32 5
  %52 = getelementptr inbounds %struct._SubAllocator, ptr %51, i32 0, i32 1
  store i32 %49, ptr %52, align 8
  br label %53

53:                                               ; preds = %48, %41
  %54 = load ptr, ptr %4, align 8
  %55 = getelementptr inbounds %struct.struct_it8, ptr %54, i32 0, i32 5
  %56 = getelementptr inbounds %struct._SubAllocator, ptr %55, i32 0, i32 2
  store i32 0, ptr %56, align 4
  %57 = load ptr, ptr %4, align 8
  %58 = load ptr, ptr %4, align 8
  %59 = getelementptr inbounds %struct.struct_it8, ptr %58, i32 0, i32 5
  %60 = getelementptr inbounds %struct._SubAllocator, ptr %59, i32 0, i32 1
  %61 = load i32, ptr %60, align 8
  %62 = call ptr @AllocBigBlock(ptr noundef %57, i32 noundef %61)
  %63 = load ptr, ptr %4, align 8
  %64 = getelementptr inbounds %struct.struct_it8, ptr %63, i32 0, i32 5
  %65 = getelementptr inbounds %struct._SubAllocator, ptr %64, i32 0, i32 0
  store ptr %62, ptr %65, align 8
  br label %66

66:                                               ; preds = %53, %2
  %67 = load ptr, ptr %4, align 8
  %68 = getelementptr inbounds %struct.struct_it8, ptr %67, i32 0, i32 5
  %69 = getelementptr inbounds %struct._SubAllocator, ptr %68, i32 0, i32 0
  %70 = load ptr, ptr %69, align 8
  %71 = icmp eq ptr %70, null
  br i1 %71, label %72, label %73

72:                                               ; preds = %66
  store ptr null, ptr %3, align 8
  br label %91

73:                                               ; preds = %66
  %74 = load ptr, ptr %4, align 8
  %75 = getelementptr inbounds %struct.struct_it8, ptr %74, i32 0, i32 5
  %76 = getelementptr inbounds %struct._SubAllocator, ptr %75, i32 0, i32 0
  %77 = load ptr, ptr %76, align 8
  %78 = load ptr, ptr %4, align 8
  %79 = getelementptr inbounds %struct.struct_it8, ptr %78, i32 0, i32 5
  %80 = getelementptr inbounds %struct._SubAllocator, ptr %79, i32 0, i32 2
  %81 = load i32, ptr %80, align 4
  %82 = zext i32 %81 to i64
  %83 = getelementptr inbounds i8, ptr %77, i64 %82
  store ptr %83, ptr %7, align 8
  %84 = load i32, ptr %5, align 4
  %85 = load ptr, ptr %4, align 8
  %86 = getelementptr inbounds %struct.struct_it8, ptr %85, i32 0, i32 5
  %87 = getelementptr inbounds %struct._SubAllocator, ptr %86, i32 0, i32 2
  %88 = load i32, ptr %87, align 4
  %89 = add i32 %88, %84
  store i32 %89, ptr %87, align 4
  %90 = load ptr, ptr %7, align 8
  store ptr %90, ptr %3, align 8
  br label %91

91:                                               ; preds = %73, %72
  %92 = load ptr, ptr %3, align 8
  ret ptr %92
}

; Function Attrs: nounwind uwtable
define internal ptr @GetTable(ptr noundef %0) #0 {
  %2 = alloca ptr, align 8
  %3 = alloca ptr, align 8
  store ptr %0, ptr %3, align 8
  %4 = load ptr, ptr %3, align 8
  %5 = getelementptr inbounds %struct.struct_it8, ptr %4, i32 0, i32 1
  %6 = load i32, ptr %5, align 4
  %7 = load ptr, ptr %3, align 8
  %8 = getelementptr inbounds %struct.struct_it8, ptr %7, i32 0, i32 0
  %9 = load i32, ptr %8, align 8
  %10 = icmp uge i32 %6, %9
  br i1 %10, label %11, label %20

11:                                               ; preds = %1
  %12 = load ptr, ptr %3, align 8
  %13 = load ptr, ptr %3, align 8
  %14 = getelementptr inbounds %struct.struct_it8, ptr %13, i32 0, i32 1
  %15 = load i32, ptr %14, align 4
  %16 = call i32 (ptr, ptr, ...) @SynError(ptr noundef %12, ptr noundef @.str.81, i32 noundef %15)
  %17 = load ptr, ptr %3, align 8
  %18 = getelementptr inbounds %struct.struct_it8, ptr %17, i32 0, i32 3
  %19 = getelementptr inbounds [255 x %struct._Table], ptr %18, i64 0, i64 0
  store ptr %19, ptr %2, align 8
  br label %29

20:                                               ; preds = %1
  %21 = load ptr, ptr %3, align 8
  %22 = getelementptr inbounds %struct.struct_it8, ptr %21, i32 0, i32 3
  %23 = getelementptr inbounds [255 x %struct._Table], ptr %22, i64 0, i64 0
  %24 = load ptr, ptr %3, align 8
  %25 = getelementptr inbounds %struct.struct_it8, ptr %24, i32 0, i32 1
  %26 = load i32, ptr %25, align 4
  %27 = zext i32 %26 to i64
  %28 = getelementptr inbounds %struct._Table, ptr %23, i64 %27
  store ptr %28, ptr %2, align 8
  br label %29

29:                                               ; preds = %20, %11
  %30 = load ptr, ptr %2, align 8
  ret ptr %30
}

; Function Attrs: nounwind uwtable
define hidden i32 @cmsIT8EnumProperties(ptr noundef %0, ptr noundef %1) #0 {
  %3 = alloca ptr, align 8
  %4 = alloca ptr, align 8
  %5 = alloca ptr, align 8
  %6 = alloca ptr, align 8
  %7 = alloca i32, align 4
  %8 = alloca ptr, align 8
  %9 = alloca ptr, align 8
  store ptr %0, ptr %3, align 8
  store ptr %1, ptr %4, align 8
  %10 = load ptr, ptr %3, align 8
  store ptr %10, ptr %5, align 8
  %11 = load ptr, ptr %5, align 8
  %12 = call ptr @GetTable(ptr noundef %11)
  store ptr %12, ptr %9, align 8
  store i32 0, ptr %7, align 4
  %13 = load ptr, ptr %9, align 8
  %14 = getelementptr inbounds %struct._Table, ptr %13, i32 0, i32 4
  %15 = load ptr, ptr %14, align 8
  store ptr %15, ptr %6, align 8
  br label %16

16:                                               ; preds = %22, %2
  %17 = load ptr, ptr %6, align 8
  %18 = icmp ne ptr %17, null
  br i1 %18, label %19, label %26

19:                                               ; preds = %16
  %20 = load i32, ptr %7, align 4
  %21 = add i32 %20, 1
  store i32 %21, ptr %7, align 4
  br label %22

22:                                               ; preds = %19
  %23 = load ptr, ptr %6, align 8
  %24 = getelementptr inbounds %struct._KeyVal, ptr %23, i32 0, i32 0
  %25 = load ptr, ptr %24, align 8
  store ptr %25, ptr %6, align 8
  br label %16, !llvm.loop !30

26:                                               ; preds = %16
  %27 = load ptr, ptr %5, align 8
  %28 = load i32, ptr %7, align 4
  %29 = zext i32 %28 to i64
  %30 = mul i64 8, %29
  %31 = trunc i64 %30 to i32
  %32 = call ptr @AllocChunk(ptr noundef %27, i32 noundef %31)
  store ptr %32, ptr %8, align 8
  %33 = load ptr, ptr %8, align 8
  %34 = icmp ne ptr %33, null
  br i1 %34, label %35, label %56

35:                                               ; preds = %26
  store i32 0, ptr %7, align 4
  %36 = load ptr, ptr %9, align 8
  %37 = getelementptr inbounds %struct._Table, ptr %36, i32 0, i32 4
  %38 = load ptr, ptr %37, align 8
  store ptr %38, ptr %6, align 8
  br label %39

39:                                               ; preds = %51, %35
  %40 = load ptr, ptr %6, align 8
  %41 = icmp ne ptr %40, null
  br i1 %41, label %42, label %55

42:                                               ; preds = %39
  %43 = load ptr, ptr %6, align 8
  %44 = getelementptr inbounds %struct._KeyVal, ptr %43, i32 0, i32 1
  %45 = load ptr, ptr %44, align 8
  %46 = load ptr, ptr %8, align 8
  %47 = load i32, ptr %7, align 4
  %48 = add i32 %47, 1
  store i32 %48, ptr %7, align 4
  %49 = zext i32 %47 to i64
  %50 = getelementptr inbounds ptr, ptr %46, i64 %49
  store ptr %45, ptr %50, align 8
  br label %51

51:                                               ; preds = %42
  %52 = load ptr, ptr %6, align 8
  %53 = getelementptr inbounds %struct._KeyVal, ptr %52, i32 0, i32 0
  %54 = load ptr, ptr %53, align 8
  store ptr %54, ptr %6, align 8
  br label %39, !llvm.loop !31

55:                                               ; preds = %39
  br label %56

56:                                               ; preds = %55, %26
  %57 = load ptr, ptr %8, align 8
  %58 = load ptr, ptr %4, align 8
  store ptr %57, ptr %58, align 8
  %59 = load i32, ptr %7, align 4
  ret i32 %59
}