; Function Attrs: nounwind uwtable
define hidden i32 @cmsIT8EnumProperties(ptr nocapture noundef %0, ptr nocapture noundef writeonly %1) local_unnamed_addr #0 {
  %3 = getelementptr inbounds i8, ptr %0, i64 4
  %4 = load i32, ptr %3, align 4
  %5 = load i32, ptr %0, align 8
  %.not.i = icmp ult i32 %4, %5
  br i1 %.not.i, label %8, label %6

6:                                                ; preds = %2
  tail call void (ptr, ptr, ...) @SynError(ptr noundef nonnull %0, ptr noundef nonnull @.str.81, i32 noundef %4)
  %7 = getelementptr inbounds i8, ptr %0, i64 16
  br label %GetTable.exit

8:                                                ; preds = %2
  %9 = getelementptr inbounds i8, ptr %0, i64 16
  %10 = zext i32 %4 to i64
  %11 = getelementptr inbounds %struct._Table, ptr %9, i64 %10
  br label %GetTable.exit

GetTable.exit:                                    ; preds = %6, %8
  %.0.i = phi ptr [ %7, %6 ], [ %11, %8 ]
  %12 = getelementptr inbounds i8, ptr %.0.i, i64 1040
  br label %13

13:                                               ; preds = %13, %GetTable.exit
  %.017 = phi i32 [ 0, %GetTable.exit ], [ %14, %13 ]
  %.0.in = phi ptr [ %12, %GetTable.exit ], [ %.0, %13 ]
  %.0 = load ptr, ptr %.0.in, align 8
  %.not = icmp eq ptr %.0, null
  %14 = add i32 %.017, 1
  br i1 %.not, label %15, label %13, !llvm.loop !48

15:                                               ; preds = %13
  %16 = shl i32 %.017, 3
  %17 = getelementptr inbounds i8, ptr %0, i64 271344
  %18 = getelementptr inbounds i8, ptr %0, i64 271352
  %19 = load i32, ptr %18, align 8
  %20 = getelementptr inbounds i8, ptr %0, i64 271356
  %21 = load i32, ptr %20, align 4
  %22 = sub i32 %19, %21
  %23 = icmp ugt i32 %16, %22
  br i1 %23, label %24, label %thread-pre-split.i

24:                                               ; preds = %15
  %25 = icmp eq i32 %19, 0
  %26 = shl i32 %19, 1
  %storemerge.i = select i1 %25, i32 20480, i32 %26
  %storemerge25.i = tail call i32 @llvm.umax.i32(i32 %storemerge.i, i32 %16)
  store i32 %storemerge25.i, ptr %18, align 8
  store i32 0, ptr %20, align 4
  %27 = getelementptr inbounds i8, ptr %0, i64 271736
  %28 = load ptr, ptr %27, align 8
  %29 = tail call ptr @_cmsMallocZero(ptr noundef %28, i32 noundef %storemerge25.i) #17
  %.not.i.i = icmp eq ptr %29, null
  br i1 %.not.i.i, label %AllocBigBlock.exit.i, label %30

30:                                               ; preds = %24
  %31 = load ptr, ptr %27, align 8
  %32 = tail call ptr @_cmsMallocZero(ptr noundef %31, i32 noundef 16) #17
  %33 = icmp eq ptr %32, null
  br i1 %33, label %34, label %36

34:                                               ; preds = %30
  %35 = load ptr, ptr %27, align 8
  tail call void @_cmsFree(ptr noundef %35, ptr noundef nonnull %29) #17
  br label %AllocBigBlock.exit.i

36:                                               ; preds = %30
  %37 = getelementptr inbounds i8, ptr %32, i64 8
  store ptr %29, ptr %37, align 8
  %38 = getelementptr inbounds i8, ptr %0, i64 271336
  %39 = load ptr, ptr %38, align 8
  store ptr %39, ptr %32, align 8
  store ptr %32, ptr %38, align 8
  br label %AllocBigBlock.exit.i

AllocBigBlock.exit.i:                             ; preds = %36, %34, %24
  %.0.i.i = phi ptr [ null, %34 ], [ %29, %36 ], [ null, %24 ]
  store ptr %.0.i.i, ptr %17, align 8
  br label %40

thread-pre-split.i:                               ; preds = %15
  %.pr.i = load ptr, ptr %17, align 8
  br label %40

40:                                               ; preds = %thread-pre-split.i, %AllocBigBlock.exit.i
  %41 = phi ptr [ %.pr.i, %thread-pre-split.i ], [ %.0.i.i, %AllocBigBlock.exit.i ]
  %42 = icmp eq ptr %41, null
  br i1 %42, label %AllocChunk.exit.thread, label %AllocChunk.exit

AllocChunk.exit:                                  ; preds = %40
  %43 = load i32, ptr %20, align 4
  %44 = zext i32 %43 to i64
  %45 = getelementptr inbounds i8, ptr %41, i64 %44
  %46 = add i32 %43, %16
  store i32 %46, ptr %20, align 4
  %.126 = load ptr, ptr %12, align 8
  %.not2127 = icmp eq ptr %.126, null
  br i1 %.not2127, label %AllocChunk.exit.thread, label %.lr.ph

.lr.ph:                                           ; preds = %AllocChunk.exit, %.lr.ph
  %.129 = phi ptr [ %.1, %.lr.ph ], [ %.126, %AllocChunk.exit ]
  %.11828 = phi i32 [ %49, %.lr.ph ], [ 0, %AllocChunk.exit ]
  %47 = getelementptr inbounds i8, ptr %.129, i64 8
  %48 = load ptr, ptr %47, align 8
  %49 = add i32 %.11828, 1
  %50 = zext i32 %.11828 to i64
  %51 = getelementptr inbounds ptr, ptr %45, i64 %50
  store ptr %48, ptr %51, align 8
  %.1 = load ptr, ptr %.129, align 8
  %.not21 = icmp eq ptr %.1, null
  br i1 %.not21, label %AllocChunk.exit.thread, label %.lr.ph, !llvm.loop !49

AllocChunk.exit.thread:                           ; preds = %.lr.ph, %AllocChunk.exit, %40
  %.0.i2225 = phi ptr [ null, %40 ], [ %45, %AllocChunk.exit ], [ %45, %.lr.ph ]
  %.2 = phi i32 [ %.017, %40 ], [ 0, %AllocChunk.exit ], [ %49, %.lr.ph ]
  store ptr %.0.i2225, ptr %1, align 8
  ret i32 %.2
}